target datalayout = "e-m:e-p270:32:32-p271:32:32-p272:64:64-i64:64-i128:128-f80:128-n8:16:32:64-S128"
target triple = "x86_64-pc-linux-gnu"

%class.LIR_Opr = type { i64 }
%class.PhiResolverState = type { %class.GrowableArray, %class.GrowableArray, %class.GrowableArray }
%class.GrowableArray = type { %class.GrowableArrayWithAllocator, %class.GrowableArrayMetadata }
%class.GrowableArrayWithAllocator = type { %class.GrowableArrayView }
%class.GrowableArrayView = type { %class.GrowableArrayBase, ptr }
%class.GrowableArrayBase = type { i32, i32 }
%class.GrowableArrayMetadata = type { i64 }
%class.PhiResolver = type { ptr, ptr, ptr, %class.LIR_Opr }
%class.LIRGenerator = type { %class.InstructionVisitor, %class.BlockClosure, ptr, ptr, %class.PhiResolverState, ptr, i32, %class.BitMap2D, ptr, %class.GrowableArray.0, %class.GrowableArray.3, %class.GrowableArray.6, ptr }
%class.InstructionVisitor = type { ptr }
%class.BlockClosure = type { ptr }
%class.BitMap2D = type { %class.ResourceBitMap, i64 }
%class.ResourceBitMap = type { %class.GrowableBitMap }
%class.GrowableBitMap = type { %class.BitMap }
%class.BitMap = type { ptr, i64 }
%class.GrowableArray.0 = type { %class.GrowableArrayWithAllocator.1, %class.GrowableArrayMetadata }
%class.GrowableArrayWithAllocator.1 = type { %class.GrowableArrayView.2 }
%class.GrowableArrayView.2 = type { %class.GrowableArrayBase, ptr }
%class.GrowableArray.3 = type { %class.GrowableArrayWithAllocator.4, %class.GrowableArrayMetadata }
%class.GrowableArrayWithAllocator.4 = type { %class.GrowableArrayView.5 }
%class.GrowableArrayView.5 = type { %class.GrowableArrayBase, ptr }
%class.GrowableArray.6 = type { %class.GrowableArrayWithAllocator.7, %class.GrowableArrayMetadata }
%class.GrowableArrayWithAllocator.7 = type { %class.GrowableArrayView.8 }
%class.GrowableArrayView.8 = type { %class.GrowableArrayBase, ptr }

@_ZN11LIR_OprFact10illegalOprE = external global %class.LIR_Opr, align 8

; Function Attrs: mustprogress nounwind uwtable
define linkonce_odr hidden void @_ZN17GrowableArrayBase5clearEv(ptr noundef nonnull align 4 dereferenceable(8) %0) #1 comdat align 2 {
  %2 = alloca ptr, align 8
  store ptr %0, ptr %2, align 8
  %3 = load ptr, ptr %2, align 8
  %4 = getelementptr inbounds %class.GrowableArrayBase, ptr %3, i32 0, i32 0
  store i32 0, ptr %4, align 4
  ret void
}

; Function Attrs: mustprogress nounwind uwtable
define hidden void @_ZN16PhiResolverState5resetEv(ptr noundef nonnull align 8 dereferenceable(72) %0) #1 align 2 {
  %2 = alloca ptr, align 8
  store ptr %0, ptr %2, align 8
  %3 = load ptr, ptr %2, align 8
  %4 = getelementptr inbounds %class.PhiResolverState, ptr %3, i32 0, i32 0
  call void @_ZN17GrowableArrayBase5clearEv(ptr noundef nonnull align 4 dereferenceable(8) %4)
  %5 = getelementptr inbounds %class.PhiResolverState, ptr %3, i32 0, i32 1
  call void @_ZN17GrowableArrayBase5clearEv(ptr noundef nonnull align 4 dereferenceable(8) %5)
  %6 = getelementptr inbounds %class.PhiResolverState, ptr %3, i32 0, i32 2
  call void @_ZN17GrowableArrayBase5clearEv(ptr noundef nonnull align 4 dereferenceable(8) %6)
  ret void
}

; Function Attrs: mustprogress nounwind uwtable
define linkonce_odr hidden noundef nonnull align 8 dereferenceable(72) ptr @_ZN12LIRGenerator14resolver_stateEv(ptr noundef nonnull align 8 dereferenceable(232) %0) #1 comdat align 2 {
  %2 = alloca ptr, align 8
  store ptr %0, ptr %2, align 8
  %3 = load ptr, ptr %2, align 8
  %4 = getelementptr inbounds %class.LIRGenerator, ptr %3, i32 0, i32 4
  ret ptr %4
}

; Function Attrs: mustprogress nounwind uwtable
define hidden void @_ZN11PhiResolverC2EP12LIRGenerator(ptr noundef nonnull align 8 dereferenceable(32) %0, ptr noundef %1) unnamed_addr #1 align 2 {
  %3 = alloca ptr, align 8
  %4 = alloca ptr, align 8
  store ptr %0, ptr %3, align 8
  store ptr %1, ptr %4, align 8
  %5 = load ptr, ptr %3, align 8
  %6 = getelementptr inbounds %class.PhiResolver, ptr %5, i32 0, i32 0
  %7 = load ptr, ptr %4, align 8
  store ptr %7, ptr %6, align 8
  %8 = getelementptr inbounds %class.PhiResolver, ptr %5, i32 0, i32 1
  %9 = load ptr, ptr %4, align 8
  %10 = call noundef nonnull align 8 dereferenceable(72) ptr @_ZN12LIRGenerator14resolver_stateEv(ptr noundef nonnull align 8 dereferenceable(232) %9)
  store ptr %10, ptr %8, align 8
  %11 = getelementptr inbounds %class.PhiResolver, ptr %5, i32 0, i32 2
  store ptr null, ptr %11, align 8
  %12 = getelementptr inbounds %class.PhiResolver, ptr %5, i32 0, i32 3
  call void @llvm.memcpy.p0.p0.i64(ptr align 8 %12, ptr align 8 @_ZN11LIR_OprFact10illegalOprE, i64 8, i1 false)
  %13 = getelementptr inbounds %class.PhiResolver, ptr %5, i32 0, i32 1
  %14 = load ptr, ptr %13, align 8
  call void @_ZN16PhiResolverState5resetEv(ptr noundef nonnull align 8 dereferenceable(72) %14)
  ret void
}