; Function Attrs: mustprogress nofree norecurse nosync nounwind willreturn memory(read, argmem: write, inaccessiblemem: none) uwtable
define hidden void @_ZN11PhiResolverC2EP12LIRGenerator(ptr nocapture noundef nonnull writeonly align 8 dereferenceable(32) %0, ptr noundef %1) unnamed_addr #1 align 2 {
  store ptr %1, ptr %0, align 8
  %3 = getelementptr inbounds i8, ptr %0, i64 8
  %4 = getelementptr inbounds i8, ptr %1, i64 32
  store ptr %4, ptr %3, align 8
  %5 = getelementptr inbounds i8, ptr %0, i64 16
  store ptr null, ptr %5, align 8
  %6 = getelementptr inbounds i8, ptr %0, i64 24
  %7 = load i64, ptr @_ZN11LIR_OprFact10illegalOprE, align 8
  store i64 %7, ptr %6, align 8
  store i32 0, ptr %4, align 4
  %8 = getelementptr inbounds i8, ptr %1, i64 56
  store i32 0, ptr %8, align 4
  %9 = getelementptr inbounds i8, ptr %1, i64 80
  store i32 0, ptr %9, align 4
  ret void
}